; Function Attrs: mustprogress nofree norecurse nosync nounwind willreturn memory(argmem: read) uwtable
define dso_local { double, double } @_ZNK7msdfgen16QuadraticSegment9directionEd(ptr nocapture noundef nonnull readonly align 8 dereferenceable(64) %this, double noundef %param) unnamed_addr #7 align 2 {
entry:
  %p = getelementptr inbounds i8, ptr %this, i64 16
  %arrayidx = getelementptr inbounds i8, ptr %this, i64 32
  %arrayidx9 = getelementptr inbounds i8, ptr %this, i64 48
  %sub.i5 = fsub double 1.000000e+00, %param
  %0 = load <2 x double>, ptr %p, align 8
  %1 = load <2 x double>, ptr %arrayidx9, align 8
  %2 = load <2 x double>, ptr %arrayidx, align 8
  %3 = fsub <2 x double> %2, %0
  %4 = fsub <2 x double> %1, %2
  %5 = insertelement <2 x double> poison, double %sub.i5, i64 0
  %6 = shufflevector <2 x double> %5, <2 x double> poison, <2 x i32> zeroinitializer
  %7 = fmul <2 x double> %6, %3
  %8 = insertelement <2 x double> poison, double %param, i64 0
  %9 = shufflevector <2 x double> %8, <2 x double> poison, <2 x i32> zeroinitializer
  %10 = fmul <2 x double> %4, %9
  %11 = fadd <2 x double> %7, %10
  %12 = extractelement <2 x double> %11, i64 0
  %.fca.0.insert.i6.i = insertvalue { double, double } poison, double %12, 0
  %13 = extractelement <2 x double> %11, i64 1
  %.fca.1.insert.i7.i = insertvalue { double, double } %.fca.0.insert.i6.i, double %13, 1
  %tobool.i = fcmp oeq double %12, 0.000000e+00
  %tobool1.i = fcmp oeq double %13, 0.000000e+00
  %14 = select i1 %tobool.i, i1 %tobool1.i, i1 false
  %15 = fsub <2 x double> %1, %0
  %16 = extractelement <2 x double> %15, i64 0
  %.fca.0.insert.i8 = insertvalue { double, double } poison, double %16, 0
  %17 = extractelement <2 x double> %15, i64 1
  %.fca.1.insert.i9 = insertvalue { double, double } %.fca.0.insert.i8, double %17, 1
  %.fca.1.insert.merged = select i1 %14, { double, double } %.fca.1.insert.i9, { double, double } %.fca.1.insert.i7.i
  ret { double, double } %.fca.1.insert.merged
}